target datalayout = "e-m:e-p270:32:32-p271:32:32-p272:64:64-i64:64-i128:128-f80:128-n8:16:32:64-S128"
target triple = "x86_64-pc-linux-gnu"

%struct.aclSelector = type { i32, [16 x i64], ptr, ptr, ptr, ptr }

; Function Attrs: nounwind uwtable
define dso_local i32 @ACLGetCommandBitCoordinates(i64 noundef %0, ptr noundef %1, ptr noundef %2) #0 {
  %4 = alloca i32, align 4
  %5 = alloca i64, align 8
  %6 = alloca ptr, align 8
  %7 = alloca ptr, align 8
  store i64 %0, ptr %5, align 8, !tbaa !10
  store ptr %1, ptr %6, align 8, !tbaa !105
  store ptr %2, ptr %7, align 8, !tbaa !105
  %8 = load i64, ptr %5, align 8, !tbaa !10
  %9 = icmp uge i64 %8, 1024
  br i1 %9, label %10, label %11

10:                                               ; preds = %3
  store i32 -1, ptr %4, align 4
  br label %20

11:                                               ; preds = %3
  %12 = load i64, ptr %5, align 8, !tbaa !10
  %13 = udiv i64 %12, 8
  %14 = udiv i64 %13, 8
  %15 = load ptr, ptr %6, align 8, !tbaa !105
  store i64 %14, ptr %15, align 8, !tbaa !10
  %16 = load i64, ptr %5, align 8, !tbaa !10
  %17 = urem i64 %16, 64
  %18 = shl i64 1, %17
  %19 = load ptr, ptr %7, align 8, !tbaa !105
  store i64 %18, ptr %19, align 8, !tbaa !10
  store i32 0, ptr %4, align 4
  br label %20

20:                                               ; preds = %11, %10
  %21 = load i32, ptr %4, align 4
  ret i32 %21
}

; Function Attrs: nounwind uwtable
define dso_local void @ACLSetSelectorCommandBit(ptr noundef %0, i64 noundef %1, i32 noundef %2) #0 {
  %4 = alloca ptr, align 8
  %5 = alloca i64, align 8
  %6 = alloca i32, align 4
  %7 = alloca i64, align 8
  %8 = alloca i64, align 8
  %9 = alloca i32, align 4
  store ptr %0, ptr %4, align 8, !tbaa !32
  store i64 %1, ptr %5, align 8, !tbaa !10
  store i32 %2, ptr %6, align 4, !tbaa !17
  call void @llvm.lifetime.start.p0(i64 8, ptr %7) #14
  call void @llvm.lifetime.start.p0(i64 8, ptr %8) #14
  %10 = load i64, ptr %5, align 8, !tbaa !10
  %11 = call i32 @ACLGetCommandBitCoordinates(i64 noundef %10, ptr noundef %7, ptr noundef %8)
  %12 = icmp eq i32 %11, -1
  br i1 %12, label %13, label %14

13:                                               ; preds = %3
  store i32 1, ptr %9, align 4
  br label %39

14:                                               ; preds = %3
  %15 = load i32, ptr %6, align 4, !tbaa !17
  %16 = icmp ne i32 %15, 0
  br i1 %16, label %17, label %25

17:                                               ; preds = %14
  %18 = load i64, ptr %8, align 8, !tbaa !10
  %19 = load ptr, ptr %4, align 8, !tbaa !32
  %20 = getelementptr inbounds nuw %struct.aclSelector, ptr %19, i32 0, i32 1
  %21 = load i64, ptr %7, align 8, !tbaa !10
  %22 = getelementptr inbounds nuw [16 x i64], ptr %20, i64 0, i64 %21
  %23 = load i64, ptr %22, align 8, !tbaa !10
  %24 = or i64 %23, %18
  store i64 %24, ptr %22, align 8, !tbaa !10
  br label %38

25:                                               ; preds = %14
  %26 = load i64, ptr %8, align 8, !tbaa !10
  %27 = xor i64 %26, -1
  %28 = load ptr, ptr %4, align 8, !tbaa !32
  %29 = getelementptr inbounds nuw %struct.aclSelector, ptr %28, i32 0, i32 1
  %30 = load i64, ptr %7, align 8, !tbaa !10
  %31 = getelementptr inbounds nuw [16 x i64], ptr %29, i64 0, i64 %30
  %32 = load i64, ptr %31, align 8, !tbaa !10
  %33 = and i64 %32, %27
  store i64 %33, ptr %31, align 8, !tbaa !10
  %34 = load ptr, ptr %4, align 8, !tbaa !32
  %35 = getelementptr inbounds nuw %struct.aclSelector, ptr %34, i32 0, i32 0
  %36 = load i32, ptr %35, align 8, !tbaa !64
  %37 = and i32 %36, -5
  store i32 %37, ptr %35, align 8, !tbaa !64
  br label %38

38:                                               ; preds = %25, %17
  store i32 0, ptr %9, align 4
  br label %39

39:                                               ; preds = %38, %13
  call void @llvm.lifetime.end.p0(i64 8, ptr %8) #14
  call void @llvm.lifetime.end.p0(i64 8, ptr %7) #14
  %40 = load i32, ptr %9, align 4
  switch i32 %40, label %42 [
    i32 0, label %41
    i32 1, label %41
  ]

41:                                               ; preds = %39, %39
  ret void

42:                                               ; preds = %39
  unreachable
}