; Function Attrs: mustprogress nofree norecurse nosync nounwind willreturn memory(argmem: readwrite) uwtable
define dso_local void @ACLSetSelectorCommandBit(ptr noundef captures(none) %0, i64 noundef %1, i32 noundef %2) local_unnamed_addr #16 {
  %4 = icmp ugt i64 %1, 1023
  br i1 %4, label %ACLGetCommandBitCoordinates.exit.thread, label %5

5:                                                ; preds = %3
  %6 = lshr i64 %1, 6
  %7 = and i64 %1, 63
  %8 = shl nuw i64 1, %7
  %.not = icmp eq i32 %2, 0
  br i1 %.not, label %14, label %9

9:                                                ; preds = %5
  %10 = getelementptr inbounds nuw i8, ptr %0, i64 8
  %11 = getelementptr inbounds nuw [16 x i64], ptr %10, i64 0, i64 %6
  %12 = load i64, ptr %11, align 8, !tbaa !5
  %13 = or i64 %12, %8
  store i64 %13, ptr %11, align 8, !tbaa !5
  br label %ACLGetCommandBitCoordinates.exit.thread

14:                                               ; preds = %5
  %15 = xor i64 %8, -1
  %16 = getelementptr inbounds nuw i8, ptr %0, i64 8
  %17 = getelementptr inbounds nuw [16 x i64], ptr %16, i64 0, i64 %6
  %18 = load i64, ptr %17, align 8, !tbaa !5
  %19 = and i64 %18, %15
  store i64 %19, ptr %17, align 8, !tbaa !5
  %20 = load i32, ptr %0, align 8, !tbaa !61
  %21 = and i32 %20, -5
  store i32 %21, ptr %0, align 8, !tbaa !61
  br label %ACLGetCommandBitCoordinates.exit.thread

ACLGetCommandBitCoordinates.exit.thread:          ; preds = %3, %9, %14
  ret void
}